target datalayout = "e-m:e-p270:32:32-p271:32:32-p272:64:64-i64:64-i128:128-f80:128-n8:16:32:64-S128"
target triple = "x86_64-pc-linux-gnu"

; Function Attrs: nounwind uwtable
define ptr @cl_hash_init(ptr noundef %0) #0 {
  %2 = alloca ptr, align 8
  %3 = alloca ptr, align 8
  %4 = alloca ptr, align 8
  %5 = alloca ptr, align 8
  %6 = alloca i32, align 4
  store ptr %0, ptr %3, align 8, !tbaa !3
  call void @llvm.lifetime.start.p0(i64 8, ptr %4) #8
  call void @llvm.lifetime.start.p0(i64 8, ptr %5) #8
  %7 = load ptr, ptr %3, align 8, !tbaa !3
  %8 = call ptr @EVP_get_digestbyname(ptr noundef %7)
  store ptr %8, ptr %5, align 8, !tbaa !15
  %9 = load ptr, ptr %5, align 8, !tbaa !15
  %10 = icmp ne ptr %9, null
  br i1 %10, label %12, label %11

11:                                               ; preds = %1
  store ptr null, ptr %2, align 8
  store i32 1, ptr %6, align 4
  br label %27

12:                                               ; preds = %1
  %13 = call ptr @EVP_MD_CTX_new()
  store ptr %13, ptr %4, align 8, !tbaa !17
  %14 = load ptr, ptr %4, align 8, !tbaa !17
  %15 = icmp ne ptr %14, null
  br i1 %15, label %17, label %16

16:                                               ; preds = %12
  store ptr null, ptr %2, align 8
  store i32 1, ptr %6, align 4
  br label %27

17:                                               ; preds = %12
  %18 = load ptr, ptr %4, align 8, !tbaa !17
  call void @EVP_MD_CTX_set_flags(ptr noundef %18, i32 noundef 8)
  %19 = load ptr, ptr %4, align 8, !tbaa !17
  %20 = load ptr, ptr %5, align 8, !tbaa !15
  %21 = call i32 @EVP_DigestInit_ex(ptr noundef %19, ptr noundef %20, ptr noundef null)
  %22 = icmp ne i32 %21, 0
  br i1 %22, label %25, label %23

23:                                               ; preds = %17
  %24 = load ptr, ptr %4, align 8, !tbaa !17
  call void @EVP_MD_CTX_free(ptr noundef %24)
  store ptr null, ptr %2, align 8
  store i32 1, ptr %6, align 4
  br label %27

25:                                               ; preds = %17
  %26 = load ptr, ptr %4, align 8, !tbaa !17
  store ptr %26, ptr %2, align 8
  store i32 1, ptr %6, align 4
  br label %27

27:                                               ; preds = %25, %23, %16, %11
  call void @llvm.lifetime.end.p0(i64 8, ptr %5) #8
  call void @llvm.lifetime.end.p0(i64 8, ptr %4) #8
  %28 = load ptr, ptr %2, align 8
  ret ptr %28
}