; Function Attrs: nounwind uwtable
define ptr @cl_hash_init(ptr noundef %0) local_unnamed_addr #1 {
  %2 = tail call ptr @EVP_get_digestbyname(ptr noundef %0) #12
  %.not = icmp eq ptr %2, null
  br i1 %.not, label %8, label %3

3:                                                ; preds = %1
  %4 = tail call ptr @EVP_MD_CTX_new() #12
  %.not11 = icmp eq ptr %4, null
  br i1 %.not11, label %8, label %5

5:                                                ; preds = %3
  tail call void @EVP_MD_CTX_set_flags(ptr noundef nonnull %4, i32 noundef 8) #12
  %6 = tail call i32 @EVP_DigestInit_ex(ptr noundef nonnull %4, ptr noundef nonnull %2, ptr noundef null) #12
  %.not12 = icmp eq i32 %6, 0
  br i1 %.not12, label %7, label %8

7:                                                ; preds = %5
  tail call void @EVP_MD_CTX_free(ptr noundef nonnull %4) #12
  br label %8

8:                                                ; preds = %5, %3, %1, %7
  %.0 = phi ptr [ null, %7 ], [ null, %1 ], [ null, %3 ], [ %4, %5 ]
  ret ptr %.0
}